target datalayout = "e-m:e-p270:32:32-p271:32:32-p272:64:64-i64:64-i128:128-f80:128-n8:16:32:64-S128"
target triple = "x86_64-pc-linux-gnu"

%struct.AVProbeData = type { ptr, ptr, i32, ptr }

@.str.144 = private unnamed_addr constant [5 x i8] c"<svg\00", align 1
@.str.145 = private unnamed_addr constant [6 x i8] c"<?xml\00", align 1
@.str.146 = private unnamed_addr constant [5 x i8] c"<!--\00", align 1
@.str.147 = private unnamed_addr constant [3 x i8] c"\0D\0A\00", align 1

; Function Attrs: alwaysinline nounwind uwtable
define internal i32 @ff_subtitles_next_line(ptr noundef %0) #3 {
  %2 = alloca ptr, align 8
  %3 = alloca i32, align 4
  store ptr %0, ptr %2, align 8, !tbaa !76
  call void @llvm.lifetime.start.p0(i64 4, ptr %3) #12
  %4 = load ptr, ptr %2, align 8, !tbaa !76
  %5 = call i64 @strcspn(ptr noundef %4, ptr noundef @.str.147) #13
  %6 = trunc i64 %5 to i32
  store i32 %6, ptr %3, align 4, !tbaa !28
  %7 = load i32, ptr %3, align 4, !tbaa !28
  %8 = load ptr, ptr %2, align 8, !tbaa !76
  %9 = sext i32 %7 to i64
  %10 = getelementptr inbounds i8, ptr %8, i64 %9
  store ptr %10, ptr %2, align 8, !tbaa !76
  br label %11

11:                                               ; preds = %16, %1
  %12 = load ptr, ptr %2, align 8, !tbaa !76
  %13 = load i8, ptr %12, align 1, !tbaa !77
  %14 = sext i8 %13 to i32
  %15 = icmp eq i32 %14, 13
  br i1 %15, label %16, label %21

16:                                               ; preds = %11
  %17 = load ptr, ptr %2, align 8, !tbaa !76
  %18 = getelementptr inbounds nuw i8, ptr %17, i32 1
  store ptr %18, ptr %2, align 8, !tbaa !76
  %19 = load i32, ptr %3, align 4, !tbaa !28
  %20 = add nsw i32 %19, 1
  store i32 %20, ptr %3, align 4, !tbaa !28
  br label %11, !llvm.loop !151

21:                                               ; preds = %11
  %22 = load ptr, ptr %2, align 8, !tbaa !76
  %23 = load i8, ptr %22, align 1, !tbaa !77
  %24 = sext i8 %23 to i32
  %25 = icmp eq i32 %24, 10
  br i1 %25, label %26, label %29

26:                                               ; preds = %21
  %27 = load i32, ptr %3, align 4, !tbaa !28
  %28 = add nsw i32 %27, 1
  store i32 %28, ptr %3, align 4, !tbaa !28
  br label %29

29:                                               ; preds = %26, %21
  %30 = load i32, ptr %3, align 4, !tbaa !28
  call void @llvm.lifetime.end.p0(i64 4, ptr %3) #12
  ret i32 %30
}

; Function Attrs: inlinehint nounwind willreturn memory(none) uwtable
define internal i32 @av_isspace(i32 noundef %0) #11 {
  %2 = alloca i32, align 4
  store i32 %0, ptr %2, align 4, !tbaa !28
  %3 = load i32, ptr %2, align 4, !tbaa !28
  %4 = icmp eq i32 %3, 32
  br i1 %4, label %20, label %5

5:                                                ; preds = %1
  %6 = load i32, ptr %2, align 4, !tbaa !28
  %7 = icmp eq i32 %6, 12
  br i1 %7, label %20, label %8

8:                                                ; preds = %5
  %9 = load i32, ptr %2, align 4, !tbaa !28
  %10 = icmp eq i32 %9, 10
  br i1 %10, label %20, label %11

11:                                               ; preds = %8
  %12 = load i32, ptr %2, align 4, !tbaa !28
  %13 = icmp eq i32 %12, 13
  br i1 %13, label %20, label %14

14:                                               ; preds = %11
  %15 = load i32, ptr %2, align 4, !tbaa !28
  %16 = icmp eq i32 %15, 9
  br i1 %16, label %20, label %17

17:                                               ; preds = %14
  %18 = load i32, ptr %2, align 4, !tbaa !28
  %19 = icmp eq i32 %18, 11
  br label %20

20:                                               ; preds = %17, %14, %11, %8, %5, %1
  %21 = phi i1 [ true, %14 ], [ true, %11 ], [ true, %8 ], [ true, %5 ], [ true, %1 ], [ %19, %17 ]
  %22 = zext i1 %21 to i32
  ret i32 %22
}

; Function Attrs: nounwind uwtable
define internal i32 @svg_probe(ptr noundef %0) #0 {
  %2 = alloca i32, align 4
  %3 = alloca ptr, align 8
  %4 = alloca ptr, align 8
  %5 = alloca ptr, align 8
  %6 = alloca i32, align 4
  %7 = alloca i32, align 4
  store ptr %0, ptr %3, align 8, !tbaa !139
  call void @llvm.lifetime.start.p0(i64 8, ptr %4) #12
  %8 = load ptr, ptr %3, align 8, !tbaa !139
  %9 = getelementptr inbounds nuw %struct.AVProbeData, ptr %8, i32 0, i32 1
  %10 = load ptr, ptr %9, align 8, !tbaa !96
  store ptr %10, ptr %4, align 8, !tbaa !76
  call void @llvm.lifetime.start.p0(i64 8, ptr %5) #12
  %11 = load ptr, ptr %3, align 8, !tbaa !139
  %12 = getelementptr inbounds nuw %struct.AVProbeData, ptr %11, i32 0, i32 1
  %13 = load ptr, ptr %12, align 8, !tbaa !96
  %14 = load ptr, ptr %3, align 8, !tbaa !139
  %15 = getelementptr inbounds nuw %struct.AVProbeData, ptr %14, i32 0, i32 2
  %16 = load i32, ptr %15, align 8, !tbaa !97
  %17 = sext i32 %16 to i64
  %18 = getelementptr inbounds i8, ptr %13, i64 %17
  store ptr %18, ptr %5, align 8, !tbaa !76
  br label %19

19:                                               ; preds = %31, %1
  %20 = load ptr, ptr %4, align 8, !tbaa !76
  %21 = load ptr, ptr %5, align 8, !tbaa !76
  %22 = icmp ult ptr %20, %21
  br i1 %22, label %23, label %29

23:                                               ; preds = %19
  %24 = load ptr, ptr %4, align 8, !tbaa !76
  %25 = load i8, ptr %24, align 1, !tbaa !77
  %26 = zext i8 %25 to i32
  %27 = call i32 @av_isspace(i32 noundef %26) #15
  %28 = icmp ne i32 %27, 0
  br label %29

29:                                               ; preds = %23, %19
  %30 = phi i1 [ false, %19 ], [ %28, %23 ]
  br i1 %30, label %31, label %34

31:                                               ; preds = %29
  %32 = load ptr, ptr %4, align 8, !tbaa !76
  %33 = getelementptr inbounds nuw i8, ptr %32, i32 1
  store ptr %33, ptr %4, align 8, !tbaa !76
  br label %19, !llvm.loop !148

34:                                               ; preds = %29
  %35 = load ptr, ptr %4, align 8, !tbaa !76
  %36 = load ptr, ptr %5, align 8, !tbaa !76
  %37 = getelementptr inbounds i8, ptr %36, i64 -5
  %38 = icmp uge ptr %35, %37
  br i1 %38, label %39, label %40

39:                                               ; preds = %34
  store i32 0, ptr %2, align 4
  store i32 1, ptr %6, align 4
  br label %87

40:                                               ; preds = %34
  %41 = load ptr, ptr %4, align 8, !tbaa !76
  %42 = call i32 @memcmp(ptr noundef %41, ptr noundef @.str.144, i64 noundef 4) #13
  %43 = icmp ne i32 %42, 0
  br i1 %43, label %45, label %44

44:                                               ; preds = %40
  store i32 51, ptr %2, align 4
  store i32 1, ptr %6, align 4
  br label %87

45:                                               ; preds = %40
  %46 = load ptr, ptr %3, align 8, !tbaa !139
  %47 = getelementptr inbounds nuw %struct.AVProbeData, ptr %46, i32 0, i32 1
  %48 = load ptr, ptr %47, align 8, !tbaa !96
  %49 = call i32 @memcmp(ptr noundef %48, ptr noundef @.str.145, i64 noundef 5) #13
  %50 = icmp ne i32 %49, 0
  br i1 %50, label %51, label %56

51:                                               ; preds = %45
  %52 = load ptr, ptr %4, align 8, !tbaa !76
  %53 = call i32 @memcmp(ptr noundef %52, ptr noundef @.str.146, i64 noundef 4) #13
  %54 = icmp ne i32 %53, 0
  br i1 %54, label %55, label %56

55:                                               ; preds = %51
  store i32 0, ptr %2, align 4
  store i32 1, ptr %6, align 4
  br label %87

56:                                               ; preds = %51, %45
  br label %57

57:                                               ; preds = %85, %56
  %58 = load ptr, ptr %4, align 8, !tbaa !76
  %59 = load ptr, ptr %5, align 8, !tbaa !76
  %60 = icmp ult ptr %58, %59
  br i1 %60, label %61, label %86

61:                                               ; preds = %57
  call void @llvm.lifetime.start.p0(i64 4, ptr %7) #12
  %62 = load ptr, ptr %4, align 8, !tbaa !76
  %63 = call i32 @ff_subtitles_next_line(ptr noundef %62)
  store i32 %63, ptr %7, align 4, !tbaa !28
  %64 = load i32, ptr %7, align 4, !tbaa !28
  %65 = icmp ne i32 %64, 0
  br i1 %65, label %67, label %66

66:                                               ; preds = %61
  store i32 5, ptr %6, align 4
  br label %83

67:                                               ; preds = %61
  %68 = load i32, ptr %7, align 4, !tbaa !28
  %69 = load ptr, ptr %4, align 8, !tbaa !76
  %70 = sext i32 %68 to i64
  %71 = getelementptr inbounds i8, ptr %69, i64 %70
  store ptr %71, ptr %4, align 8, !tbaa !76
  %72 = load ptr, ptr %4, align 8, !tbaa !76
  %73 = load ptr, ptr %5, align 8, !tbaa !76
  %74 = getelementptr inbounds i8, ptr %73, i64 -4
  %75 = icmp uge ptr %72, %74
  br i1 %75, label %76, label %77

76:                                               ; preds = %67
  store i32 0, ptr %2, align 4
  store i32 1, ptr %6, align 4
  br label %83

77:                                               ; preds = %67
  %78 = load ptr, ptr %4, align 8, !tbaa !76
  %79 = call i32 @memcmp(ptr noundef %78, ptr noundef @.str.144, i64 noundef 4) #13
  %80 = icmp ne i32 %79, 0
  br i1 %80, label %82, label %81

81:                                               ; preds = %77
  store i32 51, ptr %2, align 4
  store i32 1, ptr %6, align 4
  br label %83

82:                                               ; preds = %77
  store i32 0, ptr %6, align 4
  br label %83

83:                                               ; preds = %82, %81, %76, %66
  call void @llvm.lifetime.end.p0(i64 4, ptr %7) #12
  %84 = load i32, ptr %6, align 4
  switch i32 %84, label %87 [
    i32 0, label %85
    i32 5, label %86
  ]

85:                                               ; preds = %83
  br label %57, !llvm.loop !149

86:                                               ; preds = %83, %57
  store i32 0, ptr %2, align 4
  store i32 1, ptr %6, align 4
  br label %87

87:                                               ; preds = %86, %83, %55, %44, %39
  call void @llvm.lifetime.end.p0(i64 8, ptr %5) #12
  call void @llvm.lifetime.end.p0(i64 8, ptr %4) #12
  %88 = load i32, ptr %2, align 4
  ret i32 %88
}